; Function Attrs: nounwind uwtable
define ptr @l___private_Lean_Data_FuzzyMatching_0__Lean_FuzzyMatching_fuzzyMatchCore_set(ptr noundef readonly captures(none) %0, ptr noundef %1, ptr noundef %2, ptr noundef %3, ptr noundef %4, ptr noundef %5) local_unnamed_addr #0 {
  %7 = tail call ptr @l___private_Lean_Data_FuzzyMatching_0__Lean_FuzzyMatching_fuzzyMatchCore_getDoubleIdx(ptr noundef %0, ptr noundef %2, ptr noundef %3)
  %8 = ptrtoint ptr %7 to i64
  %9 = and i64 %8, 1
  %.not.i17 = icmp eq i64 %9, 0
  br i1 %.not.i17, label %lean_nat_add.exit.thread, label %10

10:                                               ; preds = %6
  %11 = lshr i64 %8, 1
  %12 = getelementptr i8, ptr %1, i64 8
  %.val.i = load i64, ptr %12, align 8, !tbaa !13
  %13 = icmp ult i64 %11, %.val.i
  br i1 %13, label %15, label %lean_array_set.exit.thread33

lean_array_set.exit.thread33:                     ; preds = %10
  %14 = tail call ptr @lean_array_set_panic(ptr noundef nonnull %1, ptr noundef %4) #7
  br label %31

15:                                               ; preds = %10
  %.val.i.i.i = load i32, ptr %1, align 4, !tbaa !5
  %16 = icmp eq i32 %.val.i.i.i, 1
  br i1 %16, label %lean_ensure_exclusive_array.exit.i.i, label %17

17:                                               ; preds = %15
  %18 = tail call ptr @lean_copy_expand_array(ptr noundef nonnull %1, i1 noundef zeroext false) #7
  br label %lean_ensure_exclusive_array.exit.i.i

lean_ensure_exclusive_array.exit.i.i:             ; preds = %17, %15
  %.0.i.i.i = phi ptr [ %18, %17 ], [ %1, %15 ]
  %19 = getelementptr inbounds nuw i8, ptr %.0.i.i.i, i64 24
  %20 = getelementptr inbounds nuw ptr, ptr %19, i64 %11
  %21 = load ptr, ptr %20, align 8, !tbaa !11
  %22 = ptrtoint ptr %21 to i64
  %23 = and i64 %22, 1
  %.not.i.i = icmp eq i64 %23, 0
  br i1 %.not.i.i, label %24, label %lean_array_set.exit.thread

24:                                               ; preds = %lean_ensure_exclusive_array.exit.i.i
  %25 = load i32, ptr %21, align 4, !tbaa !5
  %26 = icmp sgt i32 %25, 1
  br i1 %26, label %27, label %29, !prof !10

27:                                               ; preds = %24
  %28 = add nsw i32 %25, -1
  store i32 %28, ptr %21, align 4, !tbaa !5
  br label %lean_array_set.exit.thread

29:                                               ; preds = %24
  %.not.i.i.i = icmp eq i32 %25, 0
  br i1 %.not.i.i.i, label %lean_array_set.exit.thread, label %30

30:                                               ; preds = %29
  tail call void @lean_dec_ref_cold(ptr noundef nonnull %21) #7
  br label %lean_array_set.exit.thread

lean_array_set.exit.thread:                       ; preds = %lean_ensure_exclusive_array.exit.i.i, %27, %29, %30
  store ptr %4, ptr %20, align 8, !tbaa !11
  br label %31

31:                                               ; preds = %lean_array_set.exit.thread, %lean_array_set.exit.thread33
  %.1.i32 = phi ptr [ %.0.i.i.i, %lean_array_set.exit.thread ], [ %14, %lean_array_set.exit.thread33 ]
  %32 = add nuw i64 %11, 1
  %33 = icmp sgt i64 %32, -1
  br i1 %33, label %34, label %lean_nat_add.exit, !prof !10

34:                                               ; preds = %31
  %35 = shl nuw i64 %32, 1
  %36 = or disjoint i64 %35, 1
  %37 = inttoptr i64 %36 to ptr
  br label %lean_dec.exit14

lean_nat_add.exit.thread:                         ; preds = %6
  %38 = tail call ptr @lean_array_set_panic(ptr noundef %1, ptr noundef %4) #7
  %39 = tail call ptr @lean_nat_big_add(ptr noundef %7, ptr noundef nonnull inttoptr (i64 3 to ptr)) #7
  %40 = load i32, ptr %7, align 4, !tbaa !5
  %41 = icmp sgt i32 %40, 1
  br i1 %41, label %43, label %45, !prof !10

lean_nat_add.exit:                                ; preds = %31
  %42 = tail call ptr @lean_big_usize_to_nat(i64 noundef range(i64 0, -1) %32) #7
  br label %lean_dec.exit14

43:                                               ; preds = %lean_nat_add.exit.thread
  %44 = add nsw i32 %40, -1
  store i32 %44, ptr %7, align 4, !tbaa !5
  br label %lean_dec.exit14

45:                                               ; preds = %lean_nat_add.exit.thread
  %.not.i = icmp eq i32 %40, 0
  br i1 %.not.i, label %lean_dec.exit14, label %46

46:                                               ; preds = %45
  tail call void @lean_dec_ref_cold(ptr noundef nonnull %7) #7
  br label %lean_dec.exit14

lean_dec.exit14:                                  ; preds = %34, %lean_nat_add.exit, %46, %45, %43
  %.0.i39 = phi ptr [ %42, %lean_nat_add.exit ], [ %37, %34 ], [ %39, %43 ], [ %39, %45 ], [ %39, %46 ]
  %.1.i3037 = phi ptr [ %.1.i32, %lean_nat_add.exit ], [ %.1.i32, %34 ], [ %38, %43 ], [ %38, %45 ], [ %38, %46 ]
  %47 = ptrtoint ptr %.0.i39 to i64
  %48 = and i64 %47, 1
  %.not.i19 = icmp eq i64 %48, 0
  br i1 %.not.i19, label %70, label %49

49:                                               ; preds = %lean_dec.exit14
  %50 = lshr i64 %47, 1
  %51 = getelementptr i8, ptr %.1.i3037, i64 8
  %.val.i20 = load i64, ptr %51, align 8, !tbaa !13
  %52 = icmp ult i64 %50, %.val.i20
  br i1 %52, label %54, label %lean_array_set.exit28.thread42

lean_array_set.exit28.thread42:                   ; preds = %49
  %53 = tail call ptr @lean_array_set_panic(ptr noundef nonnull %.1.i3037, ptr noundef %5) #7
  br label %lean_dec.exit

54:                                               ; preds = %49
  %.val.i.i.i23 = load i32, ptr %.1.i3037, align 4, !tbaa !5
  %55 = icmp eq i32 %.val.i.i.i23, 1
  br i1 %55, label %lean_ensure_exclusive_array.exit.i.i24, label %56

56:                                               ; preds = %54
  %57 = tail call ptr @lean_copy_expand_array(ptr noundef nonnull %.1.i3037, i1 noundef zeroext false) #7
  br label %lean_ensure_exclusive_array.exit.i.i24

lean_ensure_exclusive_array.exit.i.i24:           ; preds = %56, %54
  %.0.i.i.i25 = phi ptr [ %57, %56 ], [ %.1.i3037, %54 ]
  %58 = getelementptr inbounds nuw i8, ptr %.0.i.i.i25, i64 24
  %59 = getelementptr inbounds nuw ptr, ptr %58, i64 %50
  %60 = load ptr, ptr %59, align 8, !tbaa !11
  %61 = ptrtoint ptr %60 to i64
  %62 = and i64 %61, 1
  %.not.i.i26 = icmp eq i64 %62, 0
  br i1 %.not.i.i26, label %63, label %lean_array_set.exit28.thread

63:                                               ; preds = %lean_ensure_exclusive_array.exit.i.i24
  %64 = load i32, ptr %60, align 4, !tbaa !5
  %65 = icmp sgt i32 %64, 1
  br i1 %65, label %66, label %68, !prof !10

66:                                               ; preds = %63
  %67 = add nsw i32 %64, -1
  store i32 %67, ptr %60, align 4, !tbaa !5
  br label %lean_array_set.exit28.thread

68:                                               ; preds = %63
  %.not.i.i.i27 = icmp eq i32 %64, 0
  br i1 %.not.i.i.i27, label %lean_array_set.exit28.thread, label %69

69:                                               ; preds = %68
  tail call void @lean_dec_ref_cold(ptr noundef nonnull %60) #7
  br label %lean_array_set.exit28.thread

lean_array_set.exit28.thread:                     ; preds = %lean_ensure_exclusive_array.exit.i.i24, %66, %68, %69
  store ptr %5, ptr %59, align 8, !tbaa !11
  br label %lean_dec.exit

70:                                               ; preds = %lean_dec.exit14
  %71 = tail call ptr @lean_array_set_panic(ptr noundef %.1.i3037, ptr noundef %5) #7
  %72 = load i32, ptr %.0.i39, align 4, !tbaa !5
  %73 = icmp sgt i32 %72, 1
  br i1 %73, label %74, label %76, !prof !10

74:                                               ; preds = %70
  %75 = add nsw i32 %72, -1
  store i32 %75, ptr %.0.i39, align 4, !tbaa !5
  br label %lean_dec.exit

76:                                               ; preds = %70
  %.not.i15 = icmp eq i32 %72, 0
  br i1 %.not.i15, label %lean_dec.exit, label %77

77:                                               ; preds = %76
  tail call void @lean_dec_ref_cold(ptr noundef nonnull %.0.i39) #7
  br label %lean_dec.exit

lean_dec.exit:                                    ; preds = %77, %76, %74, %lean_array_set.exit28.thread42, %lean_array_set.exit28.thread
  %.1.i2241 = phi ptr [ %.0.i.i.i25, %lean_array_set.exit28.thread ], [ %53, %lean_array_set.exit28.thread42 ], [ %71, %74 ], [ %71, %76 ], [ %71, %77 ]
  ret ptr %.1.i2241
}